(dp0
S'Log_X_Index<=2.0588'
p1
(dp2
I0
(dp3
S'X_Minimum<=305'
p4
(dp5
I0
S'Other_Faults'
p6
sI1
(dp7
S'Edges_Y_Index<=0.1509'
p8
(dp9
I0
(dp10
S'TypeOfSteel_A300<=0'
p11
(dp12
I0
(dp13
S'X_Maximum<=266'
p14
(dp15
I0
S'Bumps'
p16
sI1
S'Z_Scratch'
p17
sssI1
g6
sssI1
g6
sssssI1
(dp18
S'Pixels_Areas<=28'
p19
(dp20
I0
(dp21
S'TypeOfSteel_A300<=0'
p22
(dp23
I0
(dp24
S'Length_of_Conveyer<=1358'
p25
(dp26
I0
(dp27
S'Square_Index<=0.4706'
p28
(dp29
I0
(dp30
S'Steel_Plate_Thickness<=85'
p31
(dp32
I0
(dp33
S'Orientation_Index<=0.0909'
p34
(dp35
I0
(dp36
S'LogOfAreas<=2.353'
p37
(dp38
I0
g16
sI1
(dp39
S'SigmoidOfAreas<=0.3375'
p40
(dp41
I0
g6
sI1
(dp42
S'Sum_of_Luminosity<=10892'
p43
(dp44
I0
(dp45
S'Y_Minimum<=817243'
p46
(dp47
I0
g16
sI1
S'Dirtiness'
p48
sssI1
(dp49
S'X_Perimeter<=10'
p50
(dp51
I0
(dp52
S'Y_Minimum<=1048494'
p53
(dp54
I0
(dp55
S'X_Minimum<=1585'
p56
(dp57
I0
S'Pastry'
p58
sI1
(dp59
S'X_Maximum<=1054'
p60
(dp61
I0
g6
sI1
g58
sssssI1
g6
sssI1
(dp62
S'X_Minimum<=464'
p63
(dp64
I0
(dp65
S'Minimum_of_Luminosity<=99'
p66
(dp67
I0
(dp68
S'X_Maximum<=1167'
p69
(dp70
I0
g58
sI1
g16
sssI1
g58
sssI1
g6
sssssssssssI1
(dp71
S'Outside_X_Index<=0.0056'
p72
(dp73
I0
(dp74
S'Edges_Index<=0.12885'
p75
(dp76
I0
(dp77
S'Minimum_of_Luminosity<=71'
p78
(dp79
I0
(dp80
S'Luminosity_Index<=0.0054'
p81
(dp82
I0
(dp83
S'Y_Minimum<=2193794'
p84
(dp85
I0
(dp86
S'X_Minimum<=1039'
p87
(dp88
I0
g17
sI1
g16
sssI1
g6
sssI1
g6
sssI1
g6
sssI1
g6
sssI1
(dp89
S'X_Minimum<=630'
p90
(dp91
I0
g16
sI1
(dp92
S'X_Maximum<=394'
p93
(dp94
I0
g58
sI1
g6
sssssssssI1
(dp95
S'Maximum_of_Luminosity<=103'
p96
(dp97
I0
(dp98
S'Edges_Index<=0.02725'
p99
(dp100
I0
(dp101
S'Minimum_of_Luminosity<=123'
p102
(dp103
I0
g6
sI1
(dp104
S'LogOfAreas<=2.0128'
p105
(dp106
I0
(dp107
S'Edges_X_Index<=0.93935'
p108
(dp109
I0
(dp110
S'Y_Minimum<=416267'
p111
(dp112
I0
(dp113
S'X_Minimum<=685'
p114
(dp115
I0
g16
sI1
g6
sssI1
g6
sssI1
(dp116
S'Sum_of_Luminosity<=84180'
p117
(dp118
I0
g6
sI1
(dp119
S'Y_Minimum<=5767180'
p120
(dp121
I0
g6
sI1
(dp122
S'Luminosity_Index<=0.05665'
p123
(dp124
I0
g6
sI1
(dp125
S'Orientation_Index<=0.41645'
p126
(dp127
I0
g6
sI1
(dp128
S'Outside_X_Index<=0.01'
p129
(dp130
I0
(dp131
S'X_Perimeter<=20'
p132
(dp133
I0
(dp134
S'X_Minimum<=977'
p135
(dp136
I0
g16
sI1
(dp137
S'Y_Maximum<=3834307'
p138
(dp139
I0
g6
sI1
(dp140
S'X_Maximum<=913'
p141
(dp142
I0
g6
sI1
(dp143
S'Edges_Y_Index<=0.5143'
p144
(dp145
I0
g6
sI1
(dp146
S'Empty_Index<=0.6887'
p147
(dp148
I0
g16
sI1
g17
sssssssssssI1
g6
sssI1
g6
sssssssssssssI1
(dp149
S'Outside_X_Index<=0.0071'
p150
(dp151
I0
(dp152
S'Y_Minimum<=2350921'
p153
(dp154
I0
(dp155
S'X_Minimum<=1400'
p156
(dp157
I0
g48
sI1
g16
sssI1
(dp158
S'Edges_X_Index<=0.65835'
p159
(dp160
I0
g6
sI1
(dp161
S'X_Minimum<=589'
p162
(dp163
I0
g6
sI1
g17
sssssssI1
(dp164
S'Edges_Y_Index<=0.8466'
p165
(dp166
I0
(dp167
S'Orientation_Index<=0.4286'
p168
(dp169
I0
(dp170
S'Empty_Index<=0.3577'
p171
(dp172
I0
(dp173
S'X_Minimum<=1125'
p174
(dp175
I0
(dp176
S'X_Perimeter<=13'
p177
(dp178
I0
g6
sI1
g58
sssI1
g6
sssI1
g16
sssI1
(dp179
S'Empty_Index<=0.2434'
p180
(dp181
I0
(dp182
S'X_Perimeter<=9'
p183
(dp184
I0
g6
sI1
(dp185
S'X_Minimum<=1193'
p186
(dp187
I0
g16
sI1
(dp188
S'Luminosity_Index<=-0.12705'
p189
(dp190
I0
g6
sI1
(dp191
S'X_Maximum<=832'
p192
(dp193
I0
g16
sI1
g58
sssssssssI1
(dp194
S'Y_Minimum<=3264475'
p195
(dp196
I0
g16
sI1
g6
sssssssI1
g6
sssssssssI1
g6
sssI1
(dp197
S'Edges_Index<=0.0036'
p198
(dp199
I0
(dp200
S'Y_Minimum<=687516'
p201
(dp202
I0
g6
sI1
g58
sssI1
g16
sssssssI1
(dp203
S'Outside_X_Index<=0.0081'
p204
(dp205
I0
(dp206
S'Y_Minimum<=5783099'
p207
(dp208
I0
g48
sI1
(dp209
S'Empty_Index<=0.5892'
p210
(dp211
I0
(dp212
S'Edges_Y_Index<=0.6616'
p213
(dp214
I0
(dp215
S'X_Minimum<=603'
p216
(dp217
I0
S'Stains'
p218
sI1
g6
sssI1
g16
sssI1
(dp219
S'Minimum_of_Luminosity<=36'
p220
(dp221
I0
g6
sI1
g58
sssssssI1
(dp222
S'Edges_Index<=0.0047'
p223
(dp224
I0
(dp225
S'Y_Minimum<=3414279'
p226
(dp227
I0
g58
sI1
(dp228
S'Y_Maximum<=2888660'
p229
(dp230
I0
g6
sI1
(dp231
S'X_Minimum<=490'
p232
(dp233
I0
(dp234
S'X_Maximum<=774'
p235
(dp236
I0
g58
sI1
(dp237
S'Y_Perimeter<=27'
p238
(dp239
I0
(dp240
S'X_Perimeter<=16'
p241
(dp242
I0
g6
sI1
g58
sssI1
g6
sssssI1
g58
sssssssI1
g6
sssssssI1
(dp243
S'Steel_Plate_Thickness<=70'
p244
(dp245
I0
(dp246
S'Maximum_of_Luminosity<=121'
p247
(dp248
I0
(dp249
S'Edges_Index<=0.23925'
p250
(dp251
I0
g6
sI1
(dp252
S'Empty_Index<=0.41365'
p253
(dp254
I0
(dp255
S'X_Minimum<=1303'
p256
(dp257
I0
g16
sI1
g6
sssI1
g17
sssssI1
g6
sssI1
(dp258
S'Maximum_of_Luminosity<=148'
p259
(dp260
I0
(dp261
S'Y_Minimum<=1362337'
p262
(dp263
I0
g58
sI1
g16
sssI1
(dp264
S'Y_Minimum<=2302971'
p265
(dp266
I0
(dp267
S'X_Minimum<=53'
p268
(dp269
I0
g6
sI1
g17
sssI1
(dp270
S'X_Maximum<=729'
p271
(dp272
I0
(dp273
S'X_Minimum<=726'
p274
(dp275
I0
(dp276
S'Y_Maximum<=1128469'
p277
(dp278
I0
g17
sI1
(dp279
S'X_Perimeter<=19'
p280
(dp281
I0
g6
sI1
g17
sssssI1
g16
sssI1
g17
sssssssssssI1
(dp282
S'Edges_Y_Index<=0.97405'
p283
(dp284
I0
(dp285
S'Maximum_of_Luminosity<=173'
p286
(dp287
I0
g6
sI1
(dp288
S'Square_Index<=0.53135'
p289
(dp290
I0
(dp291
S'Length_of_Conveyer<=1364'
p292
(dp293
I0
(dp294
S'Y_Minimum<=66375'
p295
(dp296
I0
(dp297
S'Edges_Index<=0.7539'
p298
(dp299
I0
(dp300
S'Minimum_of_Luminosity<=91'
p301
(dp302
I0
(dp303
S'X_Minimum<=670'
p304
(dp305
I0
(dp306
S'X_Maximum<=970'
p307
(dp308
I0
g58
sI1
g6
sssI1
g16
sssI1
g16
sssI1
(dp309
S'Minimum_of_Luminosity<=126'
p310
(dp311
I0
S'K_Scatch'
p312
sI1
(dp313
S'Y_Perimeter<=7'
p314
(dp315
I0
(dp316
S'LogOfAreas<=1.8261'
p317
(dp318
I0
(dp319
S'Y_Maximum<=4216327'
p320
(dp321
I0
g6
sI1
(dp322
S'Edges_X_Index<=0.6099'
p323
(dp324
I0
g6
sI1
(dp325
S'X_Minimum<=639'
p326
(dp327
I0
g6
sI1
g58
sssssssI1
g6
sssI1
g58
sssssssI1
(dp328
S'Sum_of_Luminosity<=16694'
p329
(dp330
I0
g312
sI1
(dp331
S'X_Minimum<=1052'
p332
(dp333
I0
g16
sI1
g6
sssssssI1
(dp334
S'Luminosity_Index<=-0.21595'
p335
(dp336
I0
(dp337
S'X_Perimeter<=13'
p338
(dp339
I0
(dp340
S'Steel_Plate_Thickness<=100'
p341
(dp342
I0
g6
sI1
(dp343
S'Sum_of_Luminosity<=60124'
p344
(dp345
I0
g6
sI1
(dp346
S'Y_Minimum<=10786921'
p347
(dp348
I0
g6
sI1
(dp349
S'Outside_X_Index<=0.0073'
p350
(dp351
I0
g6
sI1
(dp352
S'Orientation_Index<=0.3452'
p353
(dp354
I0
g16
sI1
(dp355
S'X_Minimum<=479'
p356
(dp357
I0
(dp358
S'X_Maximum<=600'
p359
(dp360
I0
g48
sI1
g218
sssI1
g58
sssssssssssssI1
(dp361
S'Orientation_Index<=0.3'
p362
(dp363
I0
g6
sI1
(dp364
S'Y_Minimum<=10400435'
p365
(dp366
I0
g6
sI1
(dp367
S'Y_Maximum<=334968'
p368
(dp369
I0
g218
sI1
g6
sssssssssI1
(dp370
S'Steel_Plate_Thickness<=40'
p371
(dp372
I0
g58
sI1
g6
sssssssI1
g17
sssssI1
(dp373
S'Outside_X_Index<=0.0423'
p374
(dp375
I0
g6
sI1
(dp376
S'Y_Minimum<=473338'
p377
(dp378
I0
(dp379
S'Steel_Plate_Thickness<=70'
p380
(dp381
I0
(dp382
S'Orientation_Index<=0.28755'
p383
(dp384
I0
(dp385
S'Length_of_Conveyer<=1379'
p386
(dp387
I0
(dp388
S'Minimum_of_Luminosity<=103'
p389
(dp390
I0
g6
sI1
g58
sssI1
(dp391
S'X_Minimum<=863'
p392
(dp393
I0
(dp394
S'X_Maximum<=1263'
p395
(dp396
I0
g16
sI1
g17
sssI1
g6
sssssI1
g6
sssI1
(dp397
S'Sum_of_Luminosity<=53277'
p398
(dp399
I0
(dp400
S'X_Perimeter<=68'
p401
(dp402
I0
(dp403
S'Luminosity_Index<=-0.0914'
p404
(dp405
I0
(dp406
S'Y_Perimeter<=59'
p407
(dp408
I0
g312
sI1
g17
sssI1
g6
sssI1
g16
sssI1
(dp409
S'Maximum_of_Luminosity<=128'
p410
(dp411
I0
(dp412
S'X_Minimum<=211'
p413
(dp414
I0
(dp415
S'X_Perimeter<=21'
p416
(dp417
I0
(dp418
S'Luminosity_Index<=-0.1036'
p419
(dp420
I0
g6
sI1
(dp421
S'X_Maximum<=552'
p422
(dp423
I0
g218
sI1
g312
sssssI1
g218
sssI1
(dp424
S'Luminosity_Index<=-0.0347'
p425
(dp426
I0
(dp427
S'Length_of_Conveyer<=1392'
p428
(dp429
I0
g312
sI1
(dp430
S'Minimum_of_Luminosity<=122'
p431
(dp432
I0
g6
sI1
g17
sssssI1
g6
sssssI1
g6
sssssssI1
(dp433
S'Minimum_of_Luminosity<=193'
p434
(dp435
I0
g312
sI1
(dp436
S'Empty_Index<=0.37855'
p437
(dp438
I0
g58
sI1
(dp439
S'Length_of_Conveyer<=1540'
p440
(dp441
I0
(dp442
S'X_Minimum<=463'
p443
(dp444
I0
g6
sI1
g58
sssI1
(dp445
S'Y_Maximum<=78152'
p446
(dp447
I0
g6
sI1
(dp448
S'Steel_Plate_Thickness<=187'
p449
(dp450
I0
g6
sI1
(dp451
S'X_Perimeter<=28'
p452
(dp453
I0
g16
sI1
(dp454
S'X_Minimum<=827'
p455
(dp456
I0
g17
sI1
g312
sssssssssssssssssssssssI1
(dp457
S'Steel_Plate_Thickness<=50'
p458
(dp459
I0
g6
sI1
(dp460
S'X_Minimum<=246'
p461
(dp462
I0
g218
sI1
g312
ssssssss.